target datalayout = "e-m:e-p270:32:32-p271:32:32-p272:64:64-i64:64-i128:128-f80:128-n8:16:32:64-S128"
target triple = "x86_64-pc-linux-gnu"

@.str.14 = private unnamed_addr constant [2 x i8] c"\0A\00", align 1
@.str.15 = private unnamed_addr constant [31 x i8] c"    sim [options] [top-level]\0A\00", align 1
@.str.16 = private unnamed_addr constant [70 x i8] c"This command simulates the circuit using the given top-level module.\0A\00", align 1
@.str.17 = private unnamed_addr constant [21 x i8] c"    -vcd <filename>\0A\00", align 1
@.str.18 = private unnamed_addr constant [60 x i8] c"        write the simulation results to the given VCD file\0A\00", align 1
@.str.19 = private unnamed_addr constant [21 x i8] c"    -fst <filename>\0A\00", align 1
@.str.20 = private unnamed_addr constant [60 x i8] c"        write the simulation results to the given FST file\0A\00", align 1
@.str.21 = private unnamed_addr constant [21 x i8] c"    -aiw <filename>\0A\00", align 1
@.str.22 = private unnamed_addr constant [63 x i8] c"        write the simulation results to an AIGER witness file\0A\00", align 1
@.str.23 = private unnamed_addr constant [42 x i8] c"        (requires a *.aim file via -map)\0A\00", align 1
@.str.24 = private unnamed_addr constant [14 x i8] c"    -hdlname\0A\00", align 1
@.str.25 = private unnamed_addr constant [67 x i8] c"        use the hdlname attribute when writing simulation results\0A\00", align 1
@.str.26 = private unnamed_addr constant [53 x i8] c"        (preserves hierarchy in a flattened design)\0A\00", align 1
@.str.27 = private unnamed_addr constant [8 x i8] c"    -x\0A\00", align 1
@.str.28 = private unnamed_addr constant [55 x i8] c"        ignore constant x outputs in simulation file.\0A\00", align 1
@.str.29 = private unnamed_addr constant [11 x i8] c"    -date\0A\00", align 1
@.str.30 = private unnamed_addr constant [55 x i8] c"        include date and full version info in output.\0A\00", align 1
@.str.31 = private unnamed_addr constant [23 x i8] c"    -clock <portname>\0A\00", align 1
@.str.32 = private unnamed_addr constant [39 x i8] c"        name of top-level clock input\0A\00", align 1
@.str.33 = private unnamed_addr constant [24 x i8] c"    -clockn <portname>\0A\00", align 1
@.str.34 = private unnamed_addr constant [58 x i8] c"        name of top-level clock input (inverse polarity)\0A\00", align 1
@.str.35 = private unnamed_addr constant [17 x i8] c"    -multiclock\0A\00", align 1
@.str.36 = private unnamed_addr constant [47 x i8] c"        mark that witness file is multiclock.\0A\00", align 1
@.str.37 = private unnamed_addr constant [23 x i8] c"    -reset <portname>\0A\00", align 1
@.str.38 = private unnamed_addr constant [53 x i8] c"        name of top-level reset input (active high)\0A\00", align 1
@.str.39 = private unnamed_addr constant [24 x i8] c"    -resetn <portname>\0A\00", align 1
@.str.40 = private unnamed_addr constant [61 x i8] c"        name of top-level inverted reset input (active low)\0A\00", align 1
@.str.41 = private unnamed_addr constant [23 x i8] c"    -rstlen <integer>\0A\00", align 1
@.str.42 = private unnamed_addr constant [64 x i8] c"        number of cycles reset should stay active (default: 1)\0A\00", align 1
@.str.43 = private unnamed_addr constant [12 x i8] c"    -zinit\0A\00", align 1
@.str.44 = private unnamed_addr constant [61 x i8] c"        zero-initialize all uninitialized regs and memories\0A\00", align 1
@.str.45 = private unnamed_addr constant [25 x i8] c"    -timescale <string>\0A\00", align 1
@.str.46 = private unnamed_addr constant [64 x i8] c"        include the specified timescale declaration in the vcd\0A\00", align 1
@.str.47 = private unnamed_addr constant [18 x i8] c"    -n <integer>\0A\00", align 1
@.str.48 = private unnamed_addr constant [58 x i8] c"        number of clock cycles to simulate (default: 20)\0A\00", align 1
@.str.49 = private unnamed_addr constant [18 x i8] c"    -noinitstate\0A\00", align 1
@.str.50 = private unnamed_addr constant [65 x i8] c"        do not activate $initstate cells during the first cycle\0A\00", align 1
@.str.51 = private unnamed_addr constant [8 x i8] c"    -a\0A\00", align 1
@.str.52 = private unnamed_addr constant [78 x i8] c"        use all nets in VCD/FST operations, not just those with public names\0A\00", align 1
@.str.53 = private unnamed_addr constant [8 x i8] c"    -w\0A\00", align 1
@.str.54 = private unnamed_addr constant [70 x i8] c"        writeback mode: use final simulation state as new init state\0A\00", align 1
@.str.55 = private unnamed_addr constant [19 x i8] c"    -r <filename>\0A\00", align 1
@.str.56 = private unnamed_addr constant [48 x i8] c"        read simulation or formal results file\0A\00", align 1
@.str.57 = private unnamed_addr constant [64 x i8] c"            File formats supported: FST, VCD, AIW, WIT and .yw\0A\00", align 1
@.str.58 = private unnamed_addr constant [70 x i8] c"            VCD support requires vcd2fst external tool to be present\0A\00", align 1
@.str.59 = private unnamed_addr constant [23 x i8] c"    -append <integer>\0A\00", align 1
@.str.60 = private unnamed_addr constant [76 x i8] c"        number of extra clock cycles to simulate for a Yosys witness input\0A\00", align 1
@.str.61 = private unnamed_addr constant [25 x i8] c"    -summary <filename>\0A\00", align 1
@.str.62 = private unnamed_addr constant [48 x i8] c"        write a JSON summary to the given file\0A\00", align 1
@.str.63 = private unnamed_addr constant [21 x i8] c"    -map <filename>\0A\00", align 1
@.str.64 = private unnamed_addr constant [79 x i8] c"        read file with port and latch symbols, needed for AIGER witness input\0A\00", align 1
@.str.65 = private unnamed_addr constant [19 x i8] c"    -scope <name>\0A\00", align 1
@.str.66 = private unnamed_addr constant [39 x i8] c"        scope of simulation top model\0A\00", align 1
@.str.67 = private unnamed_addr constant [16 x i8] c"    -at <time>\0A\00", align 1
@.str.68 = private unnamed_addr constant [34 x i8] c"        sets start and stop time\0A\00", align 1
@.str.69 = private unnamed_addr constant [19 x i8] c"    -start <time>\0A\00", align 1
@.str.70 = private unnamed_addr constant [58 x i8] c"        start co-simulation in arbitary time (default 0)\0A\00", align 1
@.str.71 = private unnamed_addr constant [18 x i8] c"    -stop <time>\0A\00", align 1
@.str.72 = private unnamed_addr constant [59 x i8] c"        stop co-simulation in arbitary time (default END)\0A\00", align 1
@.str.73 = private unnamed_addr constant [10 x i8] c"    -sim\0A\00", align 1
@.str.74 = private unnamed_addr constant [53 x i8] c"        simulation with stimulus from FST (default)\0A\00", align 1
@.str.75 = private unnamed_addr constant [14 x i8] c"    -sim-cmp\0A\00", align 1
@.str.76 = private unnamed_addr constant [42 x i8] c"        co-simulation expect exact match\0A\00", align 1
@.str.77 = private unnamed_addr constant [15 x i8] c"    -sim-gold\0A\00", align 1
@.str.78 = private unnamed_addr constant [67 x i8] c"        co-simulation, x in simulation can match any value in FST\0A\00", align 1
@.str.79 = private unnamed_addr constant [15 x i8] c"    -sim-gate\0A\00", align 1
@.str.80 = private unnamed_addr constant [67 x i8] c"        co-simulation, x in FST can match any value in simulation\0A\00", align 1
@.str.81 = private unnamed_addr constant [13 x i8] c"    -assert\0A\00", align 1
@.str.82 = private unnamed_addr constant [70 x i8] c"        fail the simulation command if, in the course of simulating,\0A\00", align 1
@.str.83 = private unnamed_addr constant [47 x i8] c"        any of the asserts in the design fail\0A\00", align 1
@.str.84 = private unnamed_addr constant [8 x i8] c"    -q\0A\00", align 1
@.str.85 = private unnamed_addr constant [46 x i8] c"        disable per-cycle/sample log message\0A\00", align 1
@.str.86 = private unnamed_addr constant [8 x i8] c"    -d\0A\00", align 1
@.str.87 = private unnamed_addr constant [29 x i8] c"        enable debug output\0A\00", align 1

; Function Attrs: mustprogress uwtable
define internal void @_ZN12_GLOBAL__N_17SimPass4helpEv(ptr noundef nonnull align 8 dereferenceable(104) %0) unnamed_addr #4 align 2 {
  %2 = alloca ptr, align 8
  store ptr %0, ptr %2, align 8
  call void (ptr, ...) @_ZN5Yosys3logEPKcz(ptr noundef @.str.14)
  call void (ptr, ...) @_ZN5Yosys3logEPKcz(ptr noundef @.str.15)
  call void (ptr, ...) @_ZN5Yosys3logEPKcz(ptr noundef @.str.14)
  call void (ptr, ...) @_ZN5Yosys3logEPKcz(ptr noundef @.str.16)
  call void (ptr, ...) @_ZN5Yosys3logEPKcz(ptr noundef @.str.14)
  call void (ptr, ...) @_ZN5Yosys3logEPKcz(ptr noundef @.str.17)
  call void (ptr, ...) @_ZN5Yosys3logEPKcz(ptr noundef @.str.18)
  call void (ptr, ...) @_ZN5Yosys3logEPKcz(ptr noundef @.str.14)
  call void (ptr, ...) @_ZN5Yosys3logEPKcz(ptr noundef @.str.19)
  call void (ptr, ...) @_ZN5Yosys3logEPKcz(ptr noundef @.str.20)
  call void (ptr, ...) @_ZN5Yosys3logEPKcz(ptr noundef @.str.14)
  call void (ptr, ...) @_ZN5Yosys3logEPKcz(ptr noundef @.str.21)
  call void (ptr, ...) @_ZN5Yosys3logEPKcz(ptr noundef @.str.22)
  call void (ptr, ...) @_ZN5Yosys3logEPKcz(ptr noundef @.str.23)
  call void (ptr, ...) @_ZN5Yosys3logEPKcz(ptr noundef @.str.14)
  call void (ptr, ...) @_ZN5Yosys3logEPKcz(ptr noundef @.str.24)
  call void (ptr, ...) @_ZN5Yosys3logEPKcz(ptr noundef @.str.25)
  call void (ptr, ...) @_ZN5Yosys3logEPKcz(ptr noundef @.str.26)
  call void (ptr, ...) @_ZN5Yosys3logEPKcz(ptr noundef @.str.14)
  call void (ptr, ...) @_ZN5Yosys3logEPKcz(ptr noundef @.str.27)
  call void (ptr, ...) @_ZN5Yosys3logEPKcz(ptr noundef @.str.28)
  call void (ptr, ...) @_ZN5Yosys3logEPKcz(ptr noundef @.str.14)
  call void (ptr, ...) @_ZN5Yosys3logEPKcz(ptr noundef @.str.29)
  call void (ptr, ...) @_ZN5Yosys3logEPKcz(ptr noundef @.str.30)
  call void (ptr, ...) @_ZN5Yosys3logEPKcz(ptr noundef @.str.14)
  call void (ptr, ...) @_ZN5Yosys3logEPKcz(ptr noundef @.str.31)
  call void (ptr, ...) @_ZN5Yosys3logEPKcz(ptr noundef @.str.32)
  call void (ptr, ...) @_ZN5Yosys3logEPKcz(ptr noundef @.str.14)
  call void (ptr, ...) @_ZN5Yosys3logEPKcz(ptr noundef @.str.33)
  call void (ptr, ...) @_ZN5Yosys3logEPKcz(ptr noundef @.str.34)
  call void (ptr, ...) @_ZN5Yosys3logEPKcz(ptr noundef @.str.14)
  call void (ptr, ...) @_ZN5Yosys3logEPKcz(ptr noundef @.str.35)
  call void (ptr, ...) @_ZN5Yosys3logEPKcz(ptr noundef @.str.36)
  call void (ptr, ...) @_ZN5Yosys3logEPKcz(ptr noundef @.str.14)
  call void (ptr, ...) @_ZN5Yosys3logEPKcz(ptr noundef @.str.37)
  call void (ptr, ...) @_ZN5Yosys3logEPKcz(ptr noundef @.str.38)
  call void (ptr, ...) @_ZN5Yosys3logEPKcz(ptr noundef @.str.14)
  call void (ptr, ...) @_ZN5Yosys3logEPKcz(ptr noundef @.str.39)
  call void (ptr, ...) @_ZN5Yosys3logEPKcz(ptr noundef @.str.40)
  call void (ptr, ...) @_ZN5Yosys3logEPKcz(ptr noundef @.str.14)
  call void (ptr, ...) @_ZN5Yosys3logEPKcz(ptr noundef @.str.41)
  call void (ptr, ...) @_ZN5Yosys3logEPKcz(ptr noundef @.str.42)
  call void (ptr, ...) @_ZN5Yosys3logEPKcz(ptr noundef @.str.14)
  call void (ptr, ...) @_ZN5Yosys3logEPKcz(ptr noundef @.str.43)
  call void (ptr, ...) @_ZN5Yosys3logEPKcz(ptr noundef @.str.44)
  call void (ptr, ...) @_ZN5Yosys3logEPKcz(ptr noundef @.str.14)
  call void (ptr, ...) @_ZN5Yosys3logEPKcz(ptr noundef @.str.45)
  call void (ptr, ...) @_ZN5Yosys3logEPKcz(ptr noundef @.str.46)
  call void (ptr, ...) @_ZN5Yosys3logEPKcz(ptr noundef @.str.14)
  call void (ptr, ...) @_ZN5Yosys3logEPKcz(ptr noundef @.str.47)
  call void (ptr, ...) @_ZN5Yosys3logEPKcz(ptr noundef @.str.48)
  call void (ptr, ...) @_ZN5Yosys3logEPKcz(ptr noundef @.str.14)
  call void (ptr, ...) @_ZN5Yosys3logEPKcz(ptr noundef @.str.49)
  call void (ptr, ...) @_ZN5Yosys3logEPKcz(ptr noundef @.str.50)
  call void (ptr, ...) @_ZN5Yosys3logEPKcz(ptr noundef @.str.14)
  call void (ptr, ...) @_ZN5Yosys3logEPKcz(ptr noundef @.str.51)
  call void (ptr, ...) @_ZN5Yosys3logEPKcz(ptr noundef @.str.52)
  call void (ptr, ...) @_ZN5Yosys3logEPKcz(ptr noundef @.str.14)
  call void (ptr, ...) @_ZN5Yosys3logEPKcz(ptr noundef @.str.53)
  call void (ptr, ...) @_ZN5Yosys3logEPKcz(ptr noundef @.str.54)
  call void (ptr, ...) @_ZN5Yosys3logEPKcz(ptr noundef @.str.14)
  call void (ptr, ...) @_ZN5Yosys3logEPKcz(ptr noundef @.str.55)
  call void (ptr, ...) @_ZN5Yosys3logEPKcz(ptr noundef @.str.56)
  call void (ptr, ...) @_ZN5Yosys3logEPKcz(ptr noundef @.str.57)
  call void (ptr, ...) @_ZN5Yosys3logEPKcz(ptr noundef @.str.58)
  call void (ptr, ...) @_ZN5Yosys3logEPKcz(ptr noundef @.str.14)
  call void (ptr, ...) @_ZN5Yosys3logEPKcz(ptr noundef @.str.59)
  call void (ptr, ...) @_ZN5Yosys3logEPKcz(ptr noundef @.str.60)
  call void (ptr, ...) @_ZN5Yosys3logEPKcz(ptr noundef @.str.14)
  call void (ptr, ...) @_ZN5Yosys3logEPKcz(ptr noundef @.str.61)
  call void (ptr, ...) @_ZN5Yosys3logEPKcz(ptr noundef @.str.62)
  call void (ptr, ...) @_ZN5Yosys3logEPKcz(ptr noundef @.str.14)
  call void (ptr, ...) @_ZN5Yosys3logEPKcz(ptr noundef @.str.63)
  call void (ptr, ...) @_ZN5Yosys3logEPKcz(ptr noundef @.str.64)
  call void (ptr, ...) @_ZN5Yosys3logEPKcz(ptr noundef @.str.14)
  call void (ptr, ...) @_ZN5Yosys3logEPKcz(ptr noundef @.str.65)
  call void (ptr, ...) @_ZN5Yosys3logEPKcz(ptr noundef @.str.66)
  call void (ptr, ...) @_ZN5Yosys3logEPKcz(ptr noundef @.str.14)
  call void (ptr, ...) @_ZN5Yosys3logEPKcz(ptr noundef @.str.67)
  call void (ptr, ...) @_ZN5Yosys3logEPKcz(ptr noundef @.str.68)
  call void (ptr, ...) @_ZN5Yosys3logEPKcz(ptr noundef @.str.14)
  call void (ptr, ...) @_ZN5Yosys3logEPKcz(ptr noundef @.str.69)
  call void (ptr, ...) @_ZN5Yosys3logEPKcz(ptr noundef @.str.70)
  call void (ptr, ...) @_ZN5Yosys3logEPKcz(ptr noundef @.str.14)
  call void (ptr, ...) @_ZN5Yosys3logEPKcz(ptr noundef @.str.71)
  call void (ptr, ...) @_ZN5Yosys3logEPKcz(ptr noundef @.str.72)
  call void (ptr, ...) @_ZN5Yosys3logEPKcz(ptr noundef @.str.14)
  call void (ptr, ...) @_ZN5Yosys3logEPKcz(ptr noundef @.str.73)
  call void (ptr, ...) @_ZN5Yosys3logEPKcz(ptr noundef @.str.74)
  call void (ptr, ...) @_ZN5Yosys3logEPKcz(ptr noundef @.str.14)
  call void (ptr, ...) @_ZN5Yosys3logEPKcz(ptr noundef @.str.75)
  call void (ptr, ...) @_ZN5Yosys3logEPKcz(ptr noundef @.str.76)
  call void (ptr, ...) @_ZN5Yosys3logEPKcz(ptr noundef @.str.14)
  call void (ptr, ...) @_ZN5Yosys3logEPKcz(ptr noundef @.str.77)
  call void (ptr, ...) @_ZN5Yosys3logEPKcz(ptr noundef @.str.78)
  call void (ptr, ...) @_ZN5Yosys3logEPKcz(ptr noundef @.str.14)
  call void (ptr, ...) @_ZN5Yosys3logEPKcz(ptr noundef @.str.79)
  call void (ptr, ...) @_ZN5Yosys3logEPKcz(ptr noundef @.str.80)
  call void (ptr, ...) @_ZN5Yosys3logEPKcz(ptr noundef @.str.14)
  call void (ptr, ...) @_ZN5Yosys3logEPKcz(ptr noundef @.str.81)
  call void (ptr, ...) @_ZN5Yosys3logEPKcz(ptr noundef @.str.82)
  call void (ptr, ...) @_ZN5Yosys3logEPKcz(ptr noundef @.str.83)
  call void (ptr, ...) @_ZN5Yosys3logEPKcz(ptr noundef @.str.14)
  call void (ptr, ...) @_ZN5Yosys3logEPKcz(ptr noundef @.str.84)
  call void (ptr, ...) @_ZN5Yosys3logEPKcz(ptr noundef @.str.85)
  call void (ptr, ...) @_ZN5Yosys3logEPKcz(ptr noundef @.str.14)
  call void (ptr, ...) @_ZN5Yosys3logEPKcz(ptr noundef @.str.86)
  call void (ptr, ...) @_ZN5Yosys3logEPKcz(ptr noundef @.str.87)
  call void (ptr, ...) @_ZN5Yosys3logEPKcz(ptr noundef @.str.14)
  ret void
}